; Function Attrs: nounwind uwtable
define ptr @l_Lean_Meta_withLocalDecl___at___private_Lean_Meta_ExprLens_0__Lean_Meta_lensCoord___spec__3___rarg(ptr noundef %0, ptr noundef %1, ptr readnone captures(none) %2, ptr noundef %3, i8 noundef zeroext %4, ptr noundef %5, ptr noundef %6, i8 noundef zeroext %7) local_unnamed_addr #0 {
  %9 = getelementptr inbounds nuw i8, ptr %0, i64 16
  %10 = load ptr, ptr %9, align 8, !tbaa !9
  %11 = ptrtoint ptr %10 to i64
  %12 = and i64 %11, 1
  %.not = icmp eq i64 %12, 0
  br i1 %.not, label %13, label %lean_inc.exit27

13:                                               ; preds = %8
  %.val.i = load i32, ptr %10, align 4, !tbaa !4
  %14 = icmp sgt i32 %.val.i, 0
  br i1 %14, label %15, label %17, !prof !13

15:                                               ; preds = %13
  %16 = add nuw i32 %.val.i, 1
  store i32 %16, ptr %10, align 4, !tbaa !4
  br label %lean_inc.exit27

17:                                               ; preds = %13
  %.not.i31 = icmp eq i32 %.val.i, 0
  br i1 %.not.i31, label %lean_inc.exit27, label %18

18:                                               ; preds = %17
  tail call void @lean_inc_ref_cold(ptr noundef nonnull %10) #5
  br label %lean_inc.exit27

lean_inc.exit27:                                  ; preds = %18, %17, %15, %8
  %19 = ptrtoint ptr %0 to i64
  %20 = and i64 %19, 1
  %.not38 = icmp eq i64 %20, 0
  br i1 %.not38, label %21, label %lean_dec.exit28

21:                                               ; preds = %lean_inc.exit27
  %22 = load i32, ptr %0, align 4, !tbaa !4
  %23 = icmp sgt i32 %22, 1
  br i1 %23, label %24, label %26, !prof !13

24:                                               ; preds = %21
  %25 = add nsw i32 %22, -1
  store i32 %25, ptr %0, align 4, !tbaa !4
  br label %lean_dec.exit28

26:                                               ; preds = %21
  %.not.i = icmp eq i32 %22, 0
  br i1 %.not.i, label %lean_dec.exit28, label %27

27:                                               ; preds = %26
  tail call void @lean_dec_ref_cold(ptr noundef nonnull %0) #5
  br label %lean_dec.exit28

lean_dec.exit28:                                  ; preds = %27, %26, %24, %lean_inc.exit27
  tail call void @lean_inc_heartbeat() #5
  %28 = tail call noalias ptr @mi_malloc_small(i64 noundef 64) #5
  %29 = icmp eq ptr %28, null
  br i1 %29, label %30, label %lean_alloc_closure.exit

30:                                               ; preds = %lean_dec.exit28
  tail call void @lean_internal_panic_out_of_memory() #6
  unreachable

lean_alloc_closure.exit:                          ; preds = %lean_dec.exit28
  %31 = zext i8 %7 to i64
  %32 = shl nuw nsw i64 %31, 1
  %33 = or disjoint i64 %32, 1
  %34 = inttoptr i64 %33 to ptr
  %35 = zext i8 %4 to i64
  %36 = shl nuw nsw i64 %35, 1
  %37 = or disjoint i64 %36, 1
  %38 = inttoptr i64 %37 to ptr
  %39 = getelementptr inbounds nuw i8, ptr %28, i64 4
  store i32 1, ptr %28, align 4, !tbaa !4
  store i32 -184549312, ptr %39, align 4
  %40 = getelementptr inbounds nuw i8, ptr %28, i64 8
  store ptr @l_Lean_Meta_withLocalDecl___at___private_Lean_Meta_ExprLens_0__Lean_Meta_lensCoord___spec__2___rarg___lambda__1___boxed, ptr %40, align 8, !tbaa !9
  %41 = getelementptr inbounds nuw i8, ptr %28, i64 16
  store i16 11, ptr %41, align 8, !tbaa !11
  %42 = getelementptr inbounds nuw i8, ptr %28, i64 18
  store i16 5, ptr %42, align 2, !tbaa !11
  %43 = getelementptr inbounds nuw i8, ptr %28, i64 24
  store ptr %6, ptr %43, align 8, !tbaa !9
  %44 = getelementptr inbounds nuw i8, ptr %28, i64 32
  store ptr %3, ptr %44, align 8, !tbaa !9
  %45 = getelementptr inbounds nuw i8, ptr %28, i64 40
  store ptr %38, ptr %45, align 8, !tbaa !9
  %46 = getelementptr inbounds nuw i8, ptr %28, i64 48
  store ptr %5, ptr %46, align 8, !tbaa !9
  %47 = getelementptr inbounds nuw i8, ptr %28, i64 56
  store ptr %34, ptr %47, align 8, !tbaa !9
  %48 = getelementptr inbounds nuw i8, ptr %1, i64 8
  %49 = load ptr, ptr %48, align 8, !tbaa !9
  %50 = ptrtoint ptr %49 to i64
  %51 = and i64 %50, 1
  %.not39 = icmp eq i64 %51, 0
  br i1 %.not39, label %52, label %lean_inc.exit26

52:                                               ; preds = %lean_alloc_closure.exit
  %.val.i32 = load i32, ptr %49, align 4, !tbaa !4
  %53 = icmp sgt i32 %.val.i32, 0
  br i1 %53, label %54, label %56, !prof !13

54:                                               ; preds = %52
  %55 = add nuw i32 %.val.i32, 1
  store i32 %55, ptr %49, align 4, !tbaa !4
  br label %lean_inc.exit26

56:                                               ; preds = %52
  %.not.i33 = icmp eq i32 %.val.i32, 0
  br i1 %.not.i33, label %lean_inc.exit26, label %57

57:                                               ; preds = %56
  tail call void @lean_inc_ref_cold(ptr noundef nonnull %49) #5
  br label %lean_inc.exit26

lean_inc.exit26:                                  ; preds = %57, %56, %54, %lean_alloc_closure.exit
  %58 = tail call ptr @lean_apply_2(ptr noundef %49, ptr noundef nonnull inttoptr (i64 1 to ptr), ptr noundef nonnull %28) #5
  %59 = getelementptr inbounds nuw i8, ptr %1, i64 16
  %60 = load ptr, ptr %59, align 8, !tbaa !9
  %61 = ptrtoint ptr %60 to i64
  %62 = and i64 %61, 1
  %.not40 = icmp eq i64 %62, 0
  br i1 %.not40, label %63, label %lean_inc.exit

63:                                               ; preds = %lean_inc.exit26
  %.val.i35 = load i32, ptr %60, align 4, !tbaa !4
  %64 = icmp sgt i32 %.val.i35, 0
  br i1 %64, label %65, label %67, !prof !13

65:                                               ; preds = %63
  %66 = add nuw i32 %.val.i35, 1
  store i32 %66, ptr %60, align 4, !tbaa !4
  br label %lean_inc.exit

67:                                               ; preds = %63
  %.not.i36 = icmp eq i32 %.val.i35, 0
  br i1 %.not.i36, label %lean_inc.exit, label %68

68:                                               ; preds = %67
  tail call void @lean_inc_ref_cold(ptr noundef nonnull %60) #5
  br label %lean_inc.exit

lean_inc.exit:                                    ; preds = %68, %67, %65, %lean_inc.exit26
  %69 = ptrtoint ptr %1 to i64
  %70 = and i64 %69, 1
  %.not41 = icmp eq i64 %70, 0
  br i1 %.not41, label %71, label %lean_dec.exit

71:                                               ; preds = %lean_inc.exit
  %72 = load i32, ptr %1, align 4, !tbaa !4
  %73 = icmp sgt i32 %72, 1
  br i1 %73, label %74, label %76, !prof !13

74:                                               ; preds = %71
  %75 = add nsw i32 %72, -1
  store i32 %75, ptr %1, align 4, !tbaa !4
  br label %lean_dec.exit

76:                                               ; preds = %71
  %.not.i29 = icmp eq i32 %72, 0
  br i1 %.not.i29, label %lean_dec.exit, label %77

77:                                               ; preds = %76
  tail call void @lean_dec_ref_cold(ptr noundef nonnull %1) #5
  br label %lean_dec.exit

lean_dec.exit:                                    ; preds = %77, %76, %74, %lean_inc.exit
  %78 = tail call ptr @lean_apply_1(ptr noundef %60, ptr noundef nonnull inttoptr (i64 1 to ptr)) #5
  %79 = tail call ptr @lean_apply_4(ptr noundef %10, ptr noundef nonnull inttoptr (i64 1 to ptr), ptr noundef nonnull inttoptr (i64 1 to ptr), ptr noundef %58, ptr noundef %78) #5
  ret ptr %79
}